; Function Attrs: mustprogress uwtable
define internal fastcc noundef zeroext i1 @_ZN32pxrInternal_v0_24__pxrReserved__L8_IsCloseINS_8pxr_half4halfEEEbRKNS_7VtArrayIT_EES7_(ptr noundef nonnull align 8 dereferenceable(40) %0, ptr noundef nonnull align 8 dereferenceable(40) %1) unnamed_addr #0 {
  %3 = tail call noundef i64 @_ZNK32pxrInternal_v0_24__pxrReserved__7VtArrayINS_8pxr_half4halfEE4sizeEv(ptr noundef nonnull align 8 dereferenceable(40) %0)
  %4 = tail call noundef i64 @_ZNK32pxrInternal_v0_24__pxrReserved__7VtArrayINS_8pxr_half4halfEE4sizeEv(ptr noundef nonnull align 8 dereferenceable(40) %1)
  %.not = icmp eq i64 %3, %4
  br i1 %.not, label %.preheader, label %.loopexit

.preheader:                                       ; preds = %2
  %5 = tail call noundef i64 @_ZNK32pxrInternal_v0_24__pxrReserved__7VtArrayINS_8pxr_half4halfEE4sizeEv(ptr noundef nonnull align 8 dereferenceable(40) %0)
  %.not14 = icmp eq i64 %5, 0
  br i1 %.not14, label %.loopexit, label %.lr.ph

6:                                                ; preds = %.lr.ph
  %7 = add nuw i64 %.011, 1
  %8 = tail call noundef i64 @_ZNK32pxrInternal_v0_24__pxrReserved__7VtArrayINS_8pxr_half4halfEE4sizeEv(ptr noundef nonnull align 8 dereferenceable(40) %0)
  %9 = icmp ult i64 %7, %8
  br i1 %9, label %.lr.ph, label %.loopexit, !llvm.loop !33

.lr.ph:                                           ; preds = %.preheader, %6
  %.011 = phi i64 [ %7, %6 ], [ 0, %.preheader ]
  %10 = tail call noundef nonnull align 2 dereferenceable(2) ptr @_ZNK32pxrInternal_v0_24__pxrReserved__7VtArrayINS_8pxr_half4halfEEixEm(ptr noundef nonnull align 8 dereferenceable(40) %0, i64 noundef %.011)
  %11 = tail call noundef nonnull align 2 dereferenceable(2) ptr @_ZNK32pxrInternal_v0_24__pxrReserved__7VtArrayINS_8pxr_half4halfEEixEm(ptr noundef nonnull align 8 dereferenceable(40) %1, i64 noundef %.011)
  %.val = load i16, ptr %10, align 2
  %.val10 = load i16, ptr %11, align 2
  %12 = zext i16 %.val to i64
  %13 = getelementptr inbounds nuw [65536 x %"union.pxrInternal_v0_24__pxrReserved__::pxr_half::half::uif"], ptr @_ZN32pxrInternal_v0_24__pxrReserved__8pxr_half4half8_toFloatE, i64 0, i64 %12
  %14 = load float, ptr %13, align 4
  %15 = fpext float %14 to double
  %16 = zext i16 %.val10 to i64
  %17 = getelementptr inbounds nuw [65536 x %"union.pxrInternal_v0_24__pxrReserved__::pxr_half::half::uif"], ptr @_ZN32pxrInternal_v0_24__pxrReserved__8pxr_half4half8_toFloatE, i64 0, i64 %16
  %18 = load float, ptr %17, align 4
  %19 = fpext float %18 to double
  %20 = fsub double %15, %19
  %21 = tail call double @llvm.fabs.f64(double %20)
  %22 = fcmp olt double %21, 1.000000e-02
  br i1 %22, label %6, label %.loopexit

.loopexit:                                        ; preds = %.lr.ph, %6, %.preheader, %2
  %.09 = phi i1 [ false, %2 ], [ true, %.preheader ], [ %22, %6 ], [ %22, %.lr.ph ]
  ret i1 %.09
}